target datalayout = "e-m:e-p270:32:32-p271:32:32-p272:64:64-i64:64-i128:128-f80:128-n8:16:32:64-S128"
target triple = "x86_64-pc-linux-gnu"

%struct._object = type { %union.anon, ptr }
%union.anon = type { i64 }

@_Py_NoneStruct = external global %struct._object, align 8
@.str.94 = private unnamed_addr constant [1 x i8] zeroinitializer, align 1
@.str.95 = private unnamed_addr constant [2 x i8] c"a\00", align 1
@.str.96 = private unnamed_addr constant [2 x i8] c"A\00", align 1
@.str.97 = private unnamed_addr constant [6 x i8] c"Apple\00", align 1
@.str.98 = private unnamed_addr constant [5 x i8] c"Aple\00", align 1
@.str.99 = private unnamed_addr constant [7 x i8] c"Banana\00", align 1
@.str.100 = private unnamed_addr constant [7 x i8] c"B@n@n@\00", align 1
@.str.101 = private unnamed_addr constant [7 x i8] c"Cherry\00", align 1
@.str.102 = private unnamed_addr constant [8 x i8] c"Cherry!\00", align 1
@.str.103 = private unnamed_addr constant [8 x i8] c"---0---\00", align 1
@.str.104 = private unnamed_addr constant [7 x i8] c"------\00", align 1
@.str.105 = private unnamed_addr constant [4 x i8] c"abc\00", align 1
@.str.106 = private unnamed_addr constant [2 x i8] c"y\00", align 1
@.str.107 = private unnamed_addr constant [3 x i8] c"aa\00", align 1
@.str.108 = private unnamed_addr constant [3 x i8] c"bb\00", align 1
@.str.109 = private unnamed_addr constant [6 x i8] c"aaaaa\00", align 1
@.str.110 = private unnamed_addr constant [6 x i8] c"AAAAA\00", align 1
@.str.111 = private unnamed_addr constant [5 x i8] c"wxyz\00", align 1
@.str.112 = private unnamed_addr constant [5 x i8] c"wXyZ\00", align 1
@.str.113 = private unnamed_addr constant [8 x i8] c"wXyZ123\00", align 1
@.str.114 = private unnamed_addr constant [7 x i8] c"Python\00", align 1
@.str.115 = private unnamed_addr constant [5 x i8] c"Java\00", align 1
@.str.116 = private unnamed_addr constant [3 x i8] c"C#\00", align 1
@.str.117 = private unnamed_addr constant [22 x i8] c"AbstractFoobarManager\00", align 1
@.str.118 = private unnamed_addr constant [24 x i8] c"abstract_foobar_manager\00", align 1
@.str.119 = private unnamed_addr constant [8 x i8] c"CPython\00", align 1
@.str.120 = private unnamed_addr constant [5 x i8] c"PyPy\00", align 1
@.str.121 = private unnamed_addr constant [5 x i8] c"pypy\00", align 1
@.str.122 = private unnamed_addr constant [15 x i8] c"AttributeError\00", align 1
@.str.123 = private unnamed_addr constant [15 x i8] c"AttributeErrop\00", align 1
@.str.124 = private unnamed_addr constant [20 x i8] c"AttributeErrorTests\00", align 1

; Function Attrs: nounwind uwtable
define internal ptr @test_edit_cost(ptr noundef %0, ptr noundef %1) #0 {
  %3 = alloca ptr, align 8
  %4 = alloca ptr, align 8
  %5 = alloca ptr, align 8
  store ptr %0, ptr %4, align 8, !tbaa !3
  store ptr %1, ptr %5, align 8, !tbaa !3
  br label %6

6:                                                ; preds = %2
  %7 = call i32 @check_edit_cost(ptr noundef @.str.94, ptr noundef @.str.94, i64 noundef 0)
  %8 = icmp slt i32 %7, 0
  br i1 %8, label %9, label %10

9:                                                ; preds = %6
  store ptr null, ptr %3, align 8
  br label %120

10:                                               ; preds = %6
  br label %11

11:                                               ; preds = %10
  br label %12

12:                                               ; preds = %11
  %13 = call i32 @check_edit_cost(ptr noundef @.str.94, ptr noundef @.str.95, i64 noundef 2)
  %14 = icmp slt i32 %13, 0
  br i1 %14, label %15, label %16

15:                                               ; preds = %12
  store ptr null, ptr %3, align 8
  br label %120

16:                                               ; preds = %12
  br label %17

17:                                               ; preds = %16
  br label %18

18:                                               ; preds = %17
  %19 = call i32 @check_edit_cost(ptr noundef @.str.95, ptr noundef @.str.96, i64 noundef 1)
  %20 = icmp slt i32 %19, 0
  br i1 %20, label %21, label %22

21:                                               ; preds = %18
  store ptr null, ptr %3, align 8
  br label %120

22:                                               ; preds = %18
  br label %23

23:                                               ; preds = %22
  br label %24

24:                                               ; preds = %23
  %25 = call i32 @check_edit_cost(ptr noundef @.str.97, ptr noundef @.str.98, i64 noundef 2)
  %26 = icmp slt i32 %25, 0
  br i1 %26, label %27, label %28

27:                                               ; preds = %24
  store ptr null, ptr %3, align 8
  br label %120

28:                                               ; preds = %24
  br label %29

29:                                               ; preds = %28
  br label %30

30:                                               ; preds = %29
  %31 = call i32 @check_edit_cost(ptr noundef @.str.99, ptr noundef @.str.100, i64 noundef 6)
  %32 = icmp slt i32 %31, 0
  br i1 %32, label %33, label %34

33:                                               ; preds = %30
  store ptr null, ptr %3, align 8
  br label %120

34:                                               ; preds = %30
  br label %35

35:                                               ; preds = %34
  br label %36

36:                                               ; preds = %35
  %37 = call i32 @check_edit_cost(ptr noundef @.str.101, ptr noundef @.str.102, i64 noundef 2)
  %38 = icmp slt i32 %37, 0
  br i1 %38, label %39, label %40

39:                                               ; preds = %36
  store ptr null, ptr %3, align 8
  br label %120

40:                                               ; preds = %36
  br label %41

41:                                               ; preds = %40
  br label %42

42:                                               ; preds = %41
  %43 = call i32 @check_edit_cost(ptr noundef @.str.103, ptr noundef @.str.104, i64 noundef 2)
  %44 = icmp slt i32 %43, 0
  br i1 %44, label %45, label %46

45:                                               ; preds = %42
  store ptr null, ptr %3, align 8
  br label %120

46:                                               ; preds = %42
  br label %47

47:                                               ; preds = %46
  br label %48

48:                                               ; preds = %47
  %49 = call i32 @check_edit_cost(ptr noundef @.str.105, ptr noundef @.str.106, i64 noundef 6)
  %50 = icmp slt i32 %49, 0
  br i1 %50, label %51, label %52

51:                                               ; preds = %48
  store ptr null, ptr %3, align 8
  br label %120

52:                                               ; preds = %48
  br label %53

53:                                               ; preds = %52
  br label %54

54:                                               ; preds = %53
  %55 = call i32 @check_edit_cost(ptr noundef @.str.107, ptr noundef @.str.108, i64 noundef 4)
  %56 = icmp slt i32 %55, 0
  br i1 %56, label %57, label %58

57:                                               ; preds = %54
  store ptr null, ptr %3, align 8
  br label %120

58:                                               ; preds = %54
  br label %59

59:                                               ; preds = %58
  br label %60

60:                                               ; preds = %59
  %61 = call i32 @check_edit_cost(ptr noundef @.str.109, ptr noundef @.str.110, i64 noundef 5)
  %62 = icmp slt i32 %61, 0
  br i1 %62, label %63, label %64

63:                                               ; preds = %60
  store ptr null, ptr %3, align 8
  br label %120

64:                                               ; preds = %60
  br label %65

65:                                               ; preds = %64
  br label %66

66:                                               ; preds = %65
  %67 = call i32 @check_edit_cost(ptr noundef @.str.111, ptr noundef @.str.112, i64 noundef 2)
  %68 = icmp slt i32 %67, 0
  br i1 %68, label %69, label %70

69:                                               ; preds = %66
  store ptr null, ptr %3, align 8
  br label %120

70:                                               ; preds = %66
  br label %71

71:                                               ; preds = %70
  br label %72

72:                                               ; preds = %71
  %73 = call i32 @check_edit_cost(ptr noundef @.str.111, ptr noundef @.str.113, i64 noundef 8)
  %74 = icmp slt i32 %73, 0
  br i1 %74, label %75, label %76

75:                                               ; preds = %72
  store ptr null, ptr %3, align 8
  br label %120

76:                                               ; preds = %72
  br label %77

77:                                               ; preds = %76
  br label %78

78:                                               ; preds = %77
  %79 = call i32 @check_edit_cost(ptr noundef @.str.114, ptr noundef @.str.115, i64 noundef 12)
  %80 = icmp slt i32 %79, 0
  br i1 %80, label %81, label %82

81:                                               ; preds = %78
  store ptr null, ptr %3, align 8
  br label %120

82:                                               ; preds = %78
  br label %83

83:                                               ; preds = %82
  br label %84

84:                                               ; preds = %83
  %85 = call i32 @check_edit_cost(ptr noundef @.str.115, ptr noundef @.str.116, i64 noundef 8)
  %86 = icmp slt i32 %85, 0
  br i1 %86, label %87, label %88

87:                                               ; preds = %84
  store ptr null, ptr %3, align 8
  br label %120

88:                                               ; preds = %84
  br label %89

89:                                               ; preds = %88
  br label %90

90:                                               ; preds = %89
  %91 = call i32 @check_edit_cost(ptr noundef @.str.117, ptr noundef @.str.118, i64 noundef 7)
  %92 = icmp slt i32 %91, 0
  br i1 %92, label %93, label %94

93:                                               ; preds = %90
  store ptr null, ptr %3, align 8
  br label %120

94:                                               ; preds = %90
  br label %95

95:                                               ; preds = %94
  br label %96

96:                                               ; preds = %95
  %97 = call i32 @check_edit_cost(ptr noundef @.str.119, ptr noundef @.str.120, i64 noundef 10)
  %98 = icmp slt i32 %97, 0
  br i1 %98, label %99, label %100

99:                                               ; preds = %96
  store ptr null, ptr %3, align 8
  br label %120

100:                                              ; preds = %96
  br label %101

101:                                              ; preds = %100
  br label %102

102:                                              ; preds = %101
  %103 = call i32 @check_edit_cost(ptr noundef @.str.119, ptr noundef @.str.121, i64 noundef 11)
  %104 = icmp slt i32 %103, 0
  br i1 %104, label %105, label %106

105:                                              ; preds = %102
  store ptr null, ptr %3, align 8
  br label %120

106:                                              ; preds = %102
  br label %107

107:                                              ; preds = %106
  br label %108

108:                                              ; preds = %107
  %109 = call i32 @check_edit_cost(ptr noundef @.str.122, ptr noundef @.str.123, i64 noundef 2)
  %110 = icmp slt i32 %109, 0
  br i1 %110, label %111, label %112

111:                                              ; preds = %108
  store ptr null, ptr %3, align 8
  br label %120

112:                                              ; preds = %108
  br label %113

113:                                              ; preds = %112
  br label %114

114:                                              ; preds = %113
  %115 = call i32 @check_edit_cost(ptr noundef @.str.122, ptr noundef @.str.124, i64 noundef 10)
  %116 = icmp slt i32 %115, 0
  br i1 %116, label %117, label %118

117:                                              ; preds = %114
  store ptr null, ptr %3, align 8
  br label %120

118:                                              ; preds = %114
  br label %119

119:                                              ; preds = %118
  store ptr @_Py_NoneStruct, ptr %3, align 8
  br label %120

120:                                              ; preds = %119, %117, %111, %105, %99, %93, %87, %81, %75, %69, %63, %57, %51, %45, %39, %33, %27, %21, %15, %9
  %121 = load ptr, ptr %3, align 8
  ret ptr %121
}