; Function Attrs: nounwind uwtable
define internal ptr @test_edit_cost(ptr readnone captures(none) %0, ptr readnone captures(none) %1) #0 {
  %3 = tail call fastcc i32 @check_edit_cost(ptr noundef nonnull @.str.94, ptr noundef nonnull @.str.94, i64 noundef 0)
  %4 = icmp slt i32 %3, 0
  br i1 %4, label %59, label %5

5:                                                ; preds = %2
  %6 = tail call fastcc i32 @check_edit_cost(ptr noundef nonnull @.str.94, ptr noundef nonnull @.str.95, i64 noundef 2)
  %7 = icmp slt i32 %6, 0
  br i1 %7, label %59, label %8

8:                                                ; preds = %5
  %9 = tail call fastcc i32 @check_edit_cost(ptr noundef nonnull @.str.95, ptr noundef nonnull @.str.96, i64 noundef 1)
  %10 = icmp slt i32 %9, 0
  br i1 %10, label %59, label %11

11:                                               ; preds = %8
  %12 = tail call fastcc i32 @check_edit_cost(ptr noundef nonnull @.str.97, ptr noundef nonnull @.str.98, i64 noundef 2)
  %13 = icmp slt i32 %12, 0
  br i1 %13, label %59, label %14

14:                                               ; preds = %11
  %15 = tail call fastcc i32 @check_edit_cost(ptr noundef nonnull @.str.99, ptr noundef nonnull @.str.100, i64 noundef 6)
  %16 = icmp slt i32 %15, 0
  br i1 %16, label %59, label %17

17:                                               ; preds = %14
  %18 = tail call fastcc i32 @check_edit_cost(ptr noundef nonnull @.str.101, ptr noundef nonnull @.str.102, i64 noundef 2)
  %19 = icmp slt i32 %18, 0
  br i1 %19, label %59, label %20

20:                                               ; preds = %17
  %21 = tail call fastcc i32 @check_edit_cost(ptr noundef nonnull @.str.103, ptr noundef nonnull @.str.104, i64 noundef 2)
  %22 = icmp slt i32 %21, 0
  br i1 %22, label %59, label %23

23:                                               ; preds = %20
  %24 = tail call fastcc i32 @check_edit_cost(ptr noundef nonnull @.str.105, ptr noundef nonnull @.str.106, i64 noundef 6)
  %25 = icmp slt i32 %24, 0
  br i1 %25, label %59, label %26

26:                                               ; preds = %23
  %27 = tail call fastcc i32 @check_edit_cost(ptr noundef nonnull @.str.107, ptr noundef nonnull @.str.108, i64 noundef 4)
  %28 = icmp slt i32 %27, 0
  br i1 %28, label %59, label %29

29:                                               ; preds = %26
  %30 = tail call fastcc i32 @check_edit_cost(ptr noundef nonnull @.str.109, ptr noundef nonnull @.str.110, i64 noundef 5)
  %31 = icmp slt i32 %30, 0
  br i1 %31, label %59, label %32

32:                                               ; preds = %29
  %33 = tail call fastcc i32 @check_edit_cost(ptr noundef nonnull @.str.111, ptr noundef nonnull @.str.112, i64 noundef 2)
  %34 = icmp slt i32 %33, 0
  br i1 %34, label %59, label %35

35:                                               ; preds = %32
  %36 = tail call fastcc i32 @check_edit_cost(ptr noundef nonnull @.str.111, ptr noundef nonnull @.str.113, i64 noundef 8)
  %37 = icmp slt i32 %36, 0
  br i1 %37, label %59, label %38

38:                                               ; preds = %35
  %39 = tail call fastcc i32 @check_edit_cost(ptr noundef nonnull @.str.114, ptr noundef nonnull @.str.115, i64 noundef 12)
  %40 = icmp slt i32 %39, 0
  br i1 %40, label %59, label %41

41:                                               ; preds = %38
  %42 = tail call fastcc i32 @check_edit_cost(ptr noundef nonnull @.str.115, ptr noundef nonnull @.str.116, i64 noundef 8)
  %43 = icmp slt i32 %42, 0
  br i1 %43, label %59, label %44

44:                                               ; preds = %41
  %45 = tail call fastcc i32 @check_edit_cost(ptr noundef nonnull @.str.117, ptr noundef nonnull @.str.118, i64 noundef 7)
  %46 = icmp slt i32 %45, 0
  br i1 %46, label %59, label %47

47:                                               ; preds = %44
  %48 = tail call fastcc i32 @check_edit_cost(ptr noundef nonnull @.str.119, ptr noundef nonnull @.str.120, i64 noundef 10)
  %49 = icmp slt i32 %48, 0
  br i1 %49, label %59, label %50

50:                                               ; preds = %47
  %51 = tail call fastcc i32 @check_edit_cost(ptr noundef nonnull @.str.119, ptr noundef nonnull @.str.121, i64 noundef 11)
  %52 = icmp slt i32 %51, 0
  br i1 %52, label %59, label %53

53:                                               ; preds = %50
  %54 = tail call fastcc i32 @check_edit_cost(ptr noundef nonnull @.str.122, ptr noundef nonnull @.str.123, i64 noundef 2)
  %55 = icmp slt i32 %54, 0
  br i1 %55, label %59, label %56

56:                                               ; preds = %53
  %57 = tail call fastcc i32 @check_edit_cost(ptr noundef nonnull @.str.122, ptr noundef nonnull @.str.124, i64 noundef 10)
  %58 = icmp slt i32 %57, 0
  %._Py_NoneStruct = select i1 %58, ptr null, ptr @_Py_NoneStruct
  br label %59

59:                                               ; preds = %56, %53, %50, %47, %44, %41, %38, %35, %32, %29, %26, %23, %20, %17, %14, %11, %8, %5, %2
  %.0 = phi ptr [ null, %2 ], [ null, %5 ], [ null, %8 ], [ null, %11 ], [ null, %14 ], [ null, %17 ], [ null, %20 ], [ null, %23 ], [ null, %26 ], [ null, %29 ], [ null, %32 ], [ null, %35 ], [ null, %38 ], [ null, %41 ], [ null, %44 ], [ null, %47 ], [ null, %50 ], [ null, %53 ], [ %._Py_NoneStruct, %56 ]
  ret ptr %.0
}